target datalayout = "e-m:e-p270:32:32-p271:32:32-p272:64:64-i64:64-i128:128-f80:128-n8:16:32:64-S128"
target triple = "x86_64-unknown-linux-gnu"

%struct.sockaddr_un = type { i16, [108 x i8] }
%union.__SOCKADDR_ARG = type { ptr }

@.str.22 = private unnamed_addr constant [11 x i8] c"accept: %s\00", align 1

; Function Attrs: nounwind uwtable
define internal i32 @anetGenericAccept(ptr noundef %err, i32 noundef %s, ptr noundef %sa, ptr noundef %len) #0 {
entry:
  %retval = alloca i32, align 4
  %err.addr = alloca ptr, align 8
  %s.addr = alloca i32, align 4
  %sa.addr = alloca ptr, align 8
  %len.addr = alloca ptr, align 8
  %fd = alloca i32, align 4
  %agg.tmp = alloca %union.__SOCKADDR_ARG, align 8
  store ptr %err, ptr %err.addr, align 8
  store i32 %s, ptr %s.addr, align 4
  store ptr %sa, ptr %sa.addr, align 8
  store ptr %len, ptr %len.addr, align 8
  br label %do.body

do.body:                                          ; preds = %land.end, %entry
  %0 = load i32, ptr %s.addr, align 4
  %1 = load ptr, ptr %sa.addr, align 8
  store ptr %1, ptr %agg.tmp, align 8
  %2 = load ptr, ptr %len.addr, align 8
  %coerce.dive = getelementptr inbounds %union.__SOCKADDR_ARG, ptr %agg.tmp, i32 0, i32 0
  %3 = load ptr, ptr %coerce.dive, align 8
  %call = call i32 @accept4(i32 noundef %0, ptr %3, ptr noundef %2, i32 noundef 526336)
  store i32 %call, ptr %fd, align 4
  br label %do.cond

do.cond:                                          ; preds = %do.body
  %4 = load i32, ptr %fd, align 4
  %cmp = icmp eq i32 %4, -1
  br i1 %cmp, label %land.rhs, label %land.end

land.rhs:                                         ; preds = %do.cond
  %call1 = call ptr @__errno_location() #8
  %5 = load i32, ptr %call1, align 4
  %cmp2 = icmp eq i32 %5, 4
  br label %land.end

land.end:                                         ; preds = %land.rhs, %do.cond
  %6 = phi i1 [ false, %do.cond ], [ %cmp2, %land.rhs ]
  br i1 %6, label %do.body, label %do.end, !llvm.loop !11

do.end:                                           ; preds = %land.end
  %7 = load i32, ptr %fd, align 4
  %cmp3 = icmp eq i32 %7, -1
  br i1 %cmp3, label %if.then, label %if.end

if.then:                                          ; preds = %do.end
  %8 = load ptr, ptr %err.addr, align 8
  %call4 = call ptr @__errno_location() #8
  %9 = load i32, ptr %call4, align 4
  %call5 = call ptr @strerror(i32 noundef %9) #7
  call void (ptr, ptr, ...) @anetSetError(ptr noundef %8, ptr noundef @.str.22, ptr noundef %call5)
  store i32 -1, ptr %retval, align 4
  br label %return

if.end:                                           ; preds = %do.end
  %10 = load i32, ptr %fd, align 4
  store i32 %10, ptr %retval, align 4
  br label %return

return:                                           ; preds = %if.end, %if.then
  %11 = load i32, ptr %retval, align 4
  ret i32 %11
}

; Function Attrs: nounwind uwtable
define dso_local i32 @anetUnixAccept(ptr noundef %err, i32 noundef %s) #0 {
entry:
  %retval = alloca i32, align 4
  %err.addr = alloca ptr, align 8
  %s.addr = alloca i32, align 4
  %fd = alloca i32, align 4
  %sa = alloca %struct.sockaddr_un, align 2
  %salen = alloca i32, align 4
  store ptr %err, ptr %err.addr, align 8
  store i32 %s, ptr %s.addr, align 4
  store i32 110, ptr %salen, align 4
  %0 = load ptr, ptr %err.addr, align 8
  %1 = load i32, ptr %s.addr, align 4
  %call = call i32 @anetGenericAccept(ptr noundef %0, i32 noundef %1, ptr noundef %sa, ptr noundef %salen)
  store i32 %call, ptr %fd, align 4
  %cmp = icmp eq i32 %call, -1
  br i1 %cmp, label %if.then, label %if.end

if.then:                                          ; preds = %entry
  store i32 -1, ptr %retval, align 4
  br label %return

if.end:                                           ; preds = %entry
  %2 = load i32, ptr %fd, align 4
  store i32 %2, ptr %retval, align 4
  br label %return

return:                                           ; preds = %if.end, %if.then
  %3 = load i32, ptr %retval, align 4
  ret i32 %3
}