; Function Attrs: nounwind uwtable
define dso_local i32 @anetUnixAccept(ptr noundef %err, i32 noundef %s) local_unnamed_addr #0 {
entry:
  %sa = alloca %struct.sockaddr_un, align 2
  %salen = alloca i32, align 4
  store i32 110, ptr %salen, align 4
  br label %do.body.i

do.body.i:                                        ; preds = %land.rhs.i, %entry
  %call.i = call i32 @accept4(i32 noundef %s, ptr nonnull %sa, ptr noundef nonnull %salen, i32 noundef 526336) #10
  %cmp.i = icmp eq i32 %call.i, -1
  br i1 %cmp.i, label %land.rhs.i, label %anetGenericAccept.exit

land.rhs.i:                                       ; preds = %do.body.i
  %call1.i = tail call ptr @__errno_location() #11
  %0 = load i32, ptr %call1.i, align 4
  %cmp2.i = icmp eq i32 %0, 4
  br i1 %cmp2.i, label %do.body.i, label %if.then.i, !llvm.loop !11

if.then.i:                                        ; preds = %land.rhs.i
  %call5.i = call ptr @strerror(i32 noundef %0) #10
  call void (ptr, ptr, ...) @anetSetError(ptr noundef %err, ptr noundef nonnull @.str.22, ptr noundef %call5.i)
  br label %anetGenericAccept.exit

anetGenericAccept.exit:                           ; preds = %do.body.i, %if.then.i
  ret i32 %call.i
}